target datalayout = "e-m:e-p270:32:32-p271:32:32-p272:64:64-i64:64-i128:128-f80:128-n8:16:32:64-S128"
target triple = "x86_64-pc-linux-gnu"

%struct.HashJoinTableData = type { i32, i32, i32, i32, i32, %union.anon, i8, ptr, i32, i32, ptr, i32, i32, i32, i32, i8, double, double, double, ptr, ptr, i64, i64, i64, i64, i64, ptr, ptr, ptr, ptr, ptr, ptr, ptr, ptr, i64 }
%union.anon = type { ptr }
%struct.MinimalTupleData = type { i32, [6 x i8], i16, i16, i8, [0 x i8] }

@CurrentMemoryContext = external global ptr, align 8

; Function Attrs: inlinehint nounwind uwtable
define internal ptr @MemoryContextSwitchTo(ptr noundef %0) #2 {
  %2 = alloca ptr, align 8
  %3 = alloca ptr, align 8
  store ptr %0, ptr %2, align 8
  call void @llvm.lifetime.start.p0(i64 8, ptr %3) #8
  %4 = load ptr, ptr @CurrentMemoryContext, align 8
  store ptr %4, ptr %3, align 8
  %5 = load ptr, ptr %2, align 8
  store ptr %5, ptr @CurrentMemoryContext, align 8
  %6 = load ptr, ptr %3, align 8
  call void @llvm.lifetime.end.p0(i64 8, ptr %3) #8
  ret ptr %6
}

; Function Attrs: nounwind uwtable
define dso_local void @ExecHashJoinSaveTuple(ptr noundef %0, i32 noundef %1, ptr noundef %2, ptr noundef %3) #0 {
  %5 = alloca ptr, align 8
  %6 = alloca i32, align 4
  %7 = alloca ptr, align 8
  %8 = alloca ptr, align 8
  %9 = alloca ptr, align 8
  %10 = alloca ptr, align 8
  store ptr %0, ptr %5, align 8
  store i32 %1, ptr %6, align 4
  store ptr %2, ptr %7, align 8
  store ptr %3, ptr %8, align 8
  call void @llvm.lifetime.start.p0(i64 8, ptr %9) #8
  %11 = load ptr, ptr %7, align 8
  %12 = load ptr, ptr %11, align 8
  store ptr %12, ptr %9, align 8
  %13 = load ptr, ptr %9, align 8
  %14 = icmp eq ptr %13, null
  br i1 %14, label %15, label %25

15:                                               ; preds = %4
  call void @llvm.lifetime.start.p0(i64 8, ptr %10) #8
  %16 = load ptr, ptr %8, align 8
  %17 = getelementptr inbounds nuw %struct.HashJoinTableData, ptr %16, i32 0, i32 28
  %18 = load ptr, ptr %17, align 8
  %19 = call ptr @MemoryContextSwitchTo(ptr noundef %18)
  store ptr %19, ptr %10, align 8
  %20 = call ptr @BufFileCreateTemp(i1 noundef zeroext false)
  store ptr %20, ptr %9, align 8
  %21 = load ptr, ptr %9, align 8
  %22 = load ptr, ptr %7, align 8
  store ptr %21, ptr %22, align 8
  %23 = load ptr, ptr %10, align 8
  %24 = call ptr @MemoryContextSwitchTo(ptr noundef %23)
  call void @llvm.lifetime.end.p0(i64 8, ptr %10) #8
  br label %25

25:                                               ; preds = %15, %4
  %26 = load ptr, ptr %9, align 8
  call void @BufFileWrite(ptr noundef %26, ptr noundef %6, i64 noundef 4)
  %27 = load ptr, ptr %9, align 8
  %28 = load ptr, ptr %5, align 8
  %29 = load ptr, ptr %5, align 8
  %30 = getelementptr inbounds nuw %struct.MinimalTupleData, ptr %29, i32 0, i32 0
  %31 = load i32, ptr %30, align 4
  %32 = zext i32 %31 to i64
  call void @BufFileWrite(ptr noundef %27, ptr noundef %28, i64 noundef %32)
  call void @llvm.lifetime.end.p0(i64 8, ptr %9) #8
  ret void
}