; Function Attrs: nounwind uwtable
define dso_local void @ExecHashJoinSaveTuple(ptr noundef %0, i32 noundef %1, ptr noundef captures(none) %2, ptr noundef readonly captures(none) %3) local_unnamed_addr #0 {
  %5 = alloca i32, align 4
  store i32 %1, ptr %5, align 4
  %6 = load ptr, ptr %2, align 8
  %7 = icmp eq ptr %6, null
  br i1 %7, label %8, label %13

8:                                                ; preds = %4
  %9 = getelementptr inbounds nuw i8, ptr %3, i64 184
  %10 = load ptr, ptr %9, align 8
  %11 = load ptr, ptr @CurrentMemoryContext, align 8
  store ptr %10, ptr @CurrentMemoryContext, align 8
  %12 = tail call ptr @BufFileCreateTemp(i1 noundef zeroext false) #6
  store ptr %12, ptr %2, align 8
  store ptr %11, ptr @CurrentMemoryContext, align 8
  br label %13

13:                                               ; preds = %8, %4
  %.0 = phi ptr [ %12, %8 ], [ %6, %4 ]
  call void @BufFileWrite(ptr noundef %.0, ptr noundef nonnull %5, i64 noundef 4) #6
  %14 = load i32, ptr %0, align 4
  %15 = zext i32 %14 to i64
  call void @BufFileWrite(ptr noundef %.0, ptr noundef nonnull %0, i64 noundef %15) #6
  ret void
}